(iann
Network
p0
(dp1
S'outputLayer'
p2
(lp3
(iann
Unit
p4
(dp5
S'activation'
p6
F0.6123551930271255
sS'incomingConnections'
p7
(lp8
(iann
Connection
p9
(dp10
S'fromUnit'
p11
(iann
Unit
p12
(dp13
g6
F0.6795449136279171
sg7
(lp14
(iann
Connection
p15
(dp16
g11
(iann
Unit
p17
(dp18
g6
F0.0
sg7
(lp19
sS'outgoingConnections'
p20
(lp21
g15
a(iann
Connection
p22
(dp23
g11
g17
sS'increment'
p24
F0.0
sS'weight'
p25
F-0.41646097208191624
sS'toUnit'
p26
(iann
Unit
p27
(dp28
g6
F0.10434980035392796
sg7
(lp29
g22
a(iann
Connection
p30
(dp31
g11
(iann
Unit
p32
(dp33
g6
F0.0
sg7
(lp34
sg20
(lp35
(iann
Connection
p36
(dp37
g11
g32
sg24
F0.0
sg25
F-1.3496142740810708
sg26
g12
sbag30
a(iann
Connection
p38
(dp39
g11
g32
sg24
F-0.0
sg25
F-0.1588745426620323
sg26
(iann
Unit
p40
(dp41
g6
F0.7699560620306664
sg7
(lp42
(iann
Connection
p43
(dp44
g11
g17
sg24
F0.0
sg25
F0.2926315119158598
sg26
g40
sbag38
a(iann
Connection
p45
(dp46
g11
(iann
Unit
p47
(dp48
g6
F0.0
sg7
(lp49
sg20
(lp50
(iann
Connection
p51
(dp52
g11
g47
sg24
F0.0
sg25
F-9.909177542742732
sg26
g12
sba(iann
Connection
p53
(dp54
g11
g47
sg24
F0.0
sg25
F3.9097311873737284
sg26
g27
sbag45
a(iann
Connection
p55
(dp56
g11
g47
sg24
F0.0
sg25
F6.328113804961499
sg26
(iann
Unit
p57
(dp58
g6
F0.9598132505281086
sg7
(lp59
(iann
Connection
p60
(dp61
g11
g17
sg24
F0.0
sg25
F1.5601486890777585
sg26
g57
sba(iann
Connection
p62
(dp63
g11
g32
sg24
F0.0
sg25
F-5.24233389632039
sg26
g57
sbag55
a(iann
Connection
p64
(dp65
g11
(iann
Unit
p66
(dp67
g6
F0.0
sg7
(lp68
sg20
(lp69
(iann
Connection
p70
(dp71
g11
g66
sg24
F0.0
sg25
F0.12378745446776415
sg26
g12
sba(iann
Connection
p72
(dp73
g11
g66
sg24
F0.0
sg25
F-0.024301689682449758
sg26
g27
sba(iann
Connection
p74
(dp75
g11
g66
sg24
F0.0
sg25
F0.06860844578392815
sg26
g40
sbag64
a(iann
Connection
p76
(dp77
g11
g66
sg24
F0.0
sg25
F-0.16871930668475163
sg26
(iann
Unit
p78
(dp79
g6
F0.09622315153783641
sg7
(lp80
(iann
Connection
p81
(dp82
g11
g17
sg24
F0.0
sg25
F0.2019582375500032
sg26
g78
sba(iann
Connection
p83
(dp84
g11
g32
sg24
F0.0
sg25
F0.3831637088133704
sg26
g78
sba(iann
Connection
p85
(dp86
g11
g47
sg24
F0.0
sg25
F4.3495324144920575
sg26
g78
sbag76
a(iann
Connection
p87
(dp88
g11
(iann
Unit
p89
(dp90
g6
F0.0
sg7
(lp91
sg20
(lp92
(iann
Connection
p93
(dp94
g11
g89
sg24
F0.0
sg25
F0.4044492259266944
sg26
g12
sba(iann
Connection
p95
(dp96
g11
g89
sg24
F0.0
sg25
F-0.1716980370493797
sg26
g27
sba(iann
Connection
p97
(dp98
g11
g89
sg24
F-0.0
sg25
F0.1416639324395525
sg26
g40
sba(iann
Connection
p99
(dp100
g11
g89
sg24
F0.0
sg25
F-3.2971794117947106
sg26
g57
sbag87
a(iann
Connection
p101
(dp102
g11
g89
sg24
F0.0
sg25
F-0.0011915756650472701
sg26
(iann
Unit
p103
(dp104
g6
F0.14848024817926528
sg7
(lp105
(iann
Connection
p106
(dp107
g11
g17
sg24
F0.0
sg25
F0.3200050736535783
sg26
g103
sba(iann
Connection
p108
(dp109
g11
g32
sg24
F0.0
sg25
F0.09813244708925355
sg26
g103
sba(iann
Connection
p110
(dp111
g11
g47
sg24
F0.0
sg25
F4.040614911717559
sg26
g103
sba(iann
Connection
p112
(dp113
g11
g66
sg24
F0.0
sg25
F-0.1471590324418777
sg26
g103
sbag101
a(iann
Connection
p114
(dp115
g11
(iann
Unit
p116
(dp117
g6
F0.0
sg7
(lp118
sg20
(lp119
(iann
Connection
p120
(dp121
g11
g116
sg24
F2.3810493008737626e-06
sg25
F2.8910757034463868
sg26
g12
sba(iann
Connection
p122
(dp123
g11
g116
sg24
F6.567984763936597e-05
sg25
F0.33660879836268504
sg26
g27
sba(iann
Connection
p124
(dp125
g11
g116
sg24
F-3.364717036924486e-06
sg25
F1.2134915697137598
sg26
g40
sba(iann
Connection
p126
(dp127
g11
g116
sg24
F7.372726306603782e-07
sg25
F3.377451061678208
sg26
g57
sba(iann
Connection
p128
(dp129
g11
g116
sg24
F5.8864641448879904e-05
sg25
F0.34722343452779475
sg26
g78
sbag114
a(iann
Connection
p130
(dp131
g11
g116
sg24
F4.880778318505161e-06
sg25
F-3.0763256753714137
sg26
(iann
Unit
p132
(dp133
g6
F0.8255424291344594
sg7
(lp134
(iann
Connection
p135
(dp136
g11
g17
sg24
F0.0
sg25
F-0.43613258566061996
sg26
g132
sba(iann
Connection
p137
(dp138
g11
g32
sg24
F0.0
sg25
F-0.08388708221707879
sg26
g132
sba(iann
Connection
p139
(dp140
g11
g47
sg24
F0.0
sg25
F-6.51672442972452
sg26
g132
sba(iann
Connection
p141
(dp142
g11
g66
sg24
F0.0
sg25
F0.18315030265588153
sg26
g132
sba(iann
Connection
p143
(dp144
g11
g89
sg24
F0.0
sg25
F-0.26742408094946685
sg26
g132
sbag130
a(iann
Connection
p145
(dp146
g11
(iann
Unit
p147
(dp148
g6
F0.0
sg7
(lp149
sg20
(lp150
(iann
Connection
p151
(dp152
g11
g147
sg24
F0.0
sg25
F0.02395800993683188
sg26
g12
sba(iann
Connection
p153
(dp154
g11
g147
sg24
F0.0
sg25
F-0.041080440249087885
sg26
g27
sba(iann
Connection
p155
(dp156
g11
g147
sg24
F0.0
sg25
F0.053253779937083384
sg26
g40
sba(iann
Connection
p157
(dp158
g11
g147
sg24
F0.0
sg25
F0.03453838649638244
sg26
g57
sba(iann
Connection
p159
(dp160
g11
g147
sg24
F0.0
sg25
F0.007944245474371697
sg26
g78
sba(iann
Connection
p161
(dp162
g11
g147
sg24
F0.0
sg25
F-0.08705098031249503
sg26
g103
sbag145
asS'delta'
p163
I0
sbsg24
F0.0
sg25
F-0.021749621414478074
sg26
g132
sba(iann
Connection
p164
(dp165
g11
(iann
Unit
p166
(dp167
g6
F0.0
sg7
(lp168
sg20
(lp169
(iann
Connection
p170
(dp171
g11
g166
sg24
F0.0
sg25
F0.19723638841430485
sg26
g12
sba(iann
Connection
p172
(dp173
g11
g166
sg24
F0.0
sg25
F-0.09972328687813659
sg26
g27
sba(iann
Connection
p174
(dp175
g11
g166
sg24
F0.0
sg25
F0.13232664913788159
sg26
g40
sba(iann
Connection
p176
(dp177
g11
g166
sg24
F0.0
sg25
F0.025432655533639534
sg26
g57
sba(iann
Connection
p178
(dp179
g11
g166
sg24
F0.0
sg25
F-0.06376422358174341
sg26
g78
sba(iann
Connection
p180
(dp181
g11
g166
sg24
F0.0
sg25
F-0.13371469004462236
sg26
g103
sbag164
asg163
I0
sbsg24
F0.0
sg25
F0.12760355697729714
sg26
g132
sba(iann
Connection
p182
(dp183
g11
(iann
Unit
p184
(dp185
g6
F0.0
sg7
(lp186
sg20
(lp187
(iann
Connection
p188
(dp189
g11
g184
sg24
F0.0
sg25
F1.2313212703589205
sg26
g12
sba(iann
Connection
p190
(dp191
g11
g184
sg24
F0.0
sg25
F-0.6462372740977971
sg26
g27
sba(iann
Connection
p192
(dp193
g11
g184
sg24
F0.0
sg25
F0.9846259742281007
sg26
g40
sba(iann
Connection
p194
(dp195
g11
g184
sg24
F0.0
sg25
F0.011005287419006304
sg26
g57
sba(iann
Connection
p196
(dp197
g11
g184
sg24
F0.0
sg25
F-0.7893724884537825
sg26
g78
sba(iann
Connection
p198
(dp199
g11
g184
sg24
F0.0
sg25
F-0.36095185453849754
sg26
g103
sbag182
asg163
I0
sbsg24
F0.0
sg25
F0.40412815236825317
sg26
g132
sba(iann
Connection
p200
(dp201
g11
(iann
Unit
p202
(dp203
g6
F1.0
sg7
(lp204
sg20
(lp205
(iann
Connection
p206
(dp207
g11
g202
sg24
F2.3810493008737626e-06
sg25
F0.751681199044954
sg26
g12
sba(iann
Connection
p208
(dp209
g11
g202
sg24
F6.567984763936597e-05
sg25
F-2.1498012142810543
sg26
g27
sba(iann
Connection
p210
(dp211
g11
g202
sg24
F-3.364717036924486e-06
sg25
F1.2080631255941012
sg26
g40
sba(iann
Connection
p212
(dp213
g11
g202
sg24
F7.372726306603782e-07
sg25
F3.173201408675554
sg26
g57
sba(iann
Connection
p214
(dp215
g11
g202
sg24
F5.8864641448879904e-05
sg25
F-2.239912491679613
sg26
g78
sba(iann
Connection
p216
(dp217
g11
g202
sg24
F0.00012894153653316304
sg25
F-1.7465707558324144
sg26
g103
sbag200
asg163
I0
sbsg24
F4.880778318505161e-06
sg25
F1.5543590949677346
sg26
g132
sbasg20
(lp218
(iann
Connection
p219
(dp220
g11
g132
sg24
F-2.222774862916235e-05
sg25
F5.402935540436834
sg26
g4
sba(iann
Connection
p221
(dp222
g11
g132
sg24
F-5.354246661765135e-05
sg25
F-2.248095970715829
sg26
(iann
Unit
p223
(dp224
g6
F0.015727687574785633
sg7
(lp225
(iann
Connection
p226
(dp227
g11
g12
sg24
F-0.00029121102380744987
sg25
F-0.7315770500373223
sg26
g223
sba(iann
Connection
p228
(dp229
g11
g27
sg24
F-4.1907690965552065e-05
sg25
F-1.1248096334572437
sg26
g223
sba(iann
Connection
p230
(dp231
g11
g40
sg24
F-0.00027446701244995136
sg25
F-1.0742827288814552
sg26
g223
sba(iann
Connection
p232
(dp233
g11
g57
sg24
F-0.0002984085037327559
sg25
F1.4936392915897858
sg26
g223
sba(iann
Connection
p234
(dp235
g11
g78
sg24
F-3.912490239707487e-05
sg25
F-1.1867383837960872
sg26
g223
sba(iann
Connection
p236
(dp237
g11
g103
sg24
F-0.00014672380429752937
sg25
F-0.3259012788552966
sg26
g223
sbag221
a(iann
Connection
p238
(dp239
g11
(iann
Unit
p240
(dp241
g6
F1.0
sg7
(lp242
sg20
(lp243
(iann
Connection
p244
(dp245
g11
g240
sg24
F-0.00012405907572537615
sg25
F1.0741527849576362
sg26
g4
sbag238
a(iann
Connection
p246
(dp247
g11
g240
sg24
F-2.4232101320204895e-07
sg25
F-2.3754855768637686
sg26
(iann
Unit
p248
(dp249
g6
F0.0014144635824184957
sg7
(lp250
(iann
Connection
p251
(dp252
g11
g12
sg24
F-2.3613885243287686e-07
sg25
F-1.050214215425419
sg26
g248
sba(iann
Connection
p253
(dp254
g11
g27
sg24
F-3.3982346970698504e-08
sg25
F-1.2242628692262154
sg26
g248
sba(iann
Connection
p255
(dp256
g11
g40
sg24
F-2.2256137320359774e-07
sg25
F-1.1812365851132962
sg26
g248
sba(iann
Connection
p257
(dp258
g11
g57
sg24
F-2.41975185919669e-07
sg25
F-1.1629214339902063
sg26
g248
sba(iann
Connection
p259
(dp260
g11
g78
sg24
F-3.172582353785612e-08
sg25
F-1.3121665589076634
sg26
g248
sba(iann
Connection
p261
(dp262
g11
g103
sg24
F-1.1897623351756588e-07
sg25
F-1.227514271010222
sg26
g248
sba(iann
Connection
p263
(dp264
g11
g132
sg24
F-4.341682007161144e-08
sg25
F-1.2215901030838365
sg26
g248
sbag246
asg20
(lp265
sg163
F-1.2116050660102446e-06
sbsba(iann
Connection
p266
(dp267
g11
g240
sg24
F-1.2203967046693835e-05
sg25
F0.13321131809593156
sg26
(iann
Unit
p268
(dp269
g6
F0.012658200564745788
sg7
(lp270
(iann
Connection
p271
(dp272
g11
g12
sg24
F-1.1892616061043114e-05
sg25
F-8.89478049213405
sg26
g268
sba(iann
Connection
p273
(dp274
g11
g27
sg24
F-1.7114464697864427e-06
sg25
F2.776519929512044
sg26
g268
sba(iann
Connection
p275
(dp276
g11
g40
sg24
F-1.1208816059954758e-05
sg25
F-4.520323335821846
sg26
g268
sba(iann
Connection
p277
(dp278
g11
g57
sg24
F-1.2186550213121529e-05
sg25
F6.363483463118362
sg26
g268
sba(iann
Connection
p279
(dp280
g11
g78
sg24
F-1.5978016098108075e-06
sg25
F5.080888878691737
sg26
g268
sba(iann
Connection
p281
(dp282
g11
g103
sg24
F-5.9919773939598535e-06
sg25
F1.8284259503297517
sg26
g268
sba(iann
Connection
p283
(dp284
g11
g132
sg24
F-2.1865930421163378e-06
sg25
F-2.5715679582393536
sg26
g268
sbag266
asg20
(lp285
sg163
F-6.101983523346917e-05
sbsbasg163
I0
sbsg24
F-0.00029883498466092527
sg25
F-2.109950841571869
sg26
g223
sbasg20
(lp286
sg163
F-0.0014941749233046261
sbsbag263
ag283
asg163
F2.4403891592525805e-05
sbsbasg163
I0
sbsg24
F0.00012894153653316304
sg25
F1.7107688728145578
sg26
g103
sbag161
ag180
ag198
ag216
asg20
(lp287
(iann
Connection
p288
(dp289
g11
g103
sg24
F-6.091127372089965e-05
sg25
F-3.551624055759223
sg26
g4
sbag236
ag261
ag281
asg163
F0.0006447076826658152
sbsbag143
asg163
I0
sbsg24
F0.0
sg25
F-0.1768107776233851
sg26
g78
sbag128
ag159
ag178
ag196
ag214
asg20
(lp290
(iann
Connection
p291
(dp292
g11
g78
sg24
F-1.6242406272257753e-05
sg25
F-1.8088391715003407
sg26
g4
sbag234
ag259
ag279
asg163
F0.0002943232072443995
sbsbag112
ag141
asg163
I0
sbsg24
F0.0
sg25
F-0.15910962544855434
sg26
g57
sbag99
ag126
ag157
ag176
ag194
ag212
asg20
(lp293
(iann
Connection
p294
(dp295
g11
g57
sg24
F-0.00012388202540503557
sg25
F-8.392608224727983
sg26
g4
sbag232
ag257
ag277
asg163
F3.6863631533018906e-06
sbsbag85
ag110
ag139
asg163
I0
sbsg24
F-0.0
sg25
F-7.185916990496408
sg26
g40
sbag74
ag97
ag124
ag155
ag174
ag192
ag210
asg20
(lp296
(iann
Connection
p297
(dp298
g11
g40
sg24
F-0.00011394289701482386
sg25
F3.3960877901835316
sg26
g4
sbag230
ag255
ag275
asg163
F-1.682358518462243e-05
sbsbag62
ag83
ag108
ag137
asg163
I0
sbsg24
F0.0
sg25
F0.3204281691608425
sg26
g27
sbag53
ag72
ag95
ag122
ag153
ag172
ag190
ag208
asg20
(lp299
(iann
Connection
p300
(dp301
g11
g27
sg24
F-1.7397659825104452e-05
sg25
F-1.9523952523481154
sg26
g4
sbag228
ag253
ag273
asg163
F0.0003283992381968298
sbsbag43
ag60
ag81
ag106
ag135
asg163
I0
sbsg24
F0.0
sg25
F1.0719696564126977
sg26
g12
sbag36
ag51
ag70
ag93
ag120
ag151
ag170
ag188
ag206
asg20
(lp302
g9
ag226
ag251
ag271
asg163
F1.1905246504368813e-05
sbsg24
F-0.00012089404624289509
sg25
F1.8664641007553575
sg26
g4
sbag300
ag297
ag294
ag291
ag288
ag219
ag244
asg20
(lp303
sg163
F-0.0006202953786268807
sbag223
ag248
ag268
asS'inputs'
p304
(lp305
(lp306
F0.0
aF0.0
aF0.0
aF0.0
aF1.0
aF1.0
aF0.0
aF0.0
aF0.0
aa(lp307
F0.0
aF0.0
aF0.0
aF0.0
aF0.0
aF1.0
aF0.0
aF0.0
aF0.0
aa(lp308
F0.0
aF0.0
aF0.0
aF0.0
aF0.0
aF1.0
aF0.0
aF0.0
aF0.0
aa(lp309
F0.0
aF0.0
aF0.0
aF0.0
aF59.998805555555556
aF60.07047222222222
aF0.0
aF0.0
aF0.0
aa(lp310
F0.0
aF0.0
aF0.0
aF0.0
aF59.996027777777776
aF60.2343611111111
aF0.0
aF0.0
aF0.0
aa(lp311
F0.0
aF0.0
aF0.0
aF0.0
aF59.99325
aF60.39824999999998
aF0.0
aF0.0
aF0.0
aa(lp312
F0.0
aF0.0
aF0.0
aF0.0
aF0.0
aF59.99047222222222
aF0.0
aF0.0
aF0.0
aa(lp313
F0.0
aF0.0
aF0.0
aF0.0
aF0.0
aF59.98769444444444
aF0.0
aF0.0
aF0.0
aa(lp314
F0.0
aF0.0
aF0.0
aF0.0
aF0.0
aF59.98491666666667
aF0.0
aF0.0
aF0.0
aa(lp315
F0.0
aF0.0
aF0.0
aF0.0
aF59.998805555555556
aF60.070472222222165
aF0.0
aF0.0
aF0.0
aa(lp316
F0.0
aF0.0
aF0.0
aF0.0
aF59.996027777777776
aF60.23436111111104
aF0.0
aF0.0
aF0.0
aa(lp317
F0.0
aF0.0
aF0.0
aF0.0
aF59.99325
aF60.398249999999926
aF0.0
aF0.0
aF0.0
aa(lp318
F0.0
aF0.0
aF0.0
aF0.0
aF0.0
aF59.99047222222222
aF0.0
aF0.0
aF0.0
aa(lp319
F0.0
aF0.0
aF0.0
aF0.0
aF0.0
aF59.98769444444444
aF0.0
aF0.0
aF0.0
aa(lp320
F0.0
aF0.0
aF0.0
aF0.0
aF0.0
aF59.98491666666667
aF0.0
aF0.0
aF0.0
aa(lp321
F0.0
aF0.0
aF59.998805555555556
aF0.0
aF59.998805555555556
aF60.07047222222219
aF0.0
aF0.0
aF0.0
aa(lp322
F0.0
aF0.0
aF59.996027777777776
aF0.0
aF59.996027777777776
aF60.23436111111111
aF0.0
aF0.0
aF0.0
aa(lp323
F0.0
aF0.0
aF59.993249999999996
aF0.0
aF59.993249999999996
aF60.39825000000004
aF0.0
aF0.0
aF0.0
aa(lp324
F0.0
aF0.0
aF59.99047222222222
aF0.0
aF0.0
aF59.99047222222222
aF0.0
aF0.0
aF0.0
aa(lp325
F0.0
aF0.0
aF59.98769444444444
aF0.0
aF0.0
aF59.98769444444444
aF0.0
aF0.0
aF0.0
aa(lp326
F0.0
aF0.0
aF59.98491666666666
aF0.0
aF0.0
aF59.98491666666666
aF0.0
aF0.0
aF0.0
aa(lp327
F0.0
aF59.99880555555555
aF0.07166666666686297
aF0.0
aF59.99880555555555
aF0.07166666666686297
aF0.0
aF0.0
aF0.0
aa(lp328
F0.0
aF59.996027777777776
aF0.23833333333356752
aF0.0
aF59.996027777777776
aF0.23833333333356752
aF0.0
aF0.0
aF0.0
aa(lp329
F0.0
aF59.993249999999996
aF0.4050000000002721
aF0.0
aF59.993249999999996
aF0.4050000000002721
aF0.0
aF0.0
aF0.0
aa(lp330
F0.0
aF59.990472222222216
aF0.5716666666669766
aF0.0
aF0.0
aF0.0
aF0.0
aF0.0
aF0.0
aa(lp331
F0.0
aF59.987694444444436
aF0.7383333333336812
aF0.0
aF0.0
aF0.0
aF0.0
aF0.0
aF0.0
aa(lp332
F0.0
aF59.98491666666666
aF0.9050000000003858
aF0.0
aF0.0
aF0.0
aF0.0
aF0.0
aF0.0
aa(lp333
F59.99880555555555
aF0.07166666666709035
aF0.0
aF0.0
aF0.0
aF0.0
aF0.0
aF0.0
aF0.0
aa(lp334
F59.997249999999994
aF0.1650000000004449
aF0.0
aF0.0
aF0.0
aF0.0
aF0.0
aF0.0
aF0.0
aa(lp335
F59.997249999999994
aF0.1650000000004449
aF0.0
aF0.0
aF0.0
aF0.0
aF0.0
aF0.0
aF0.0
aa(lp336
F0.1650000000004449
aF0.8349999999995551
aF0.0
aF0.021450000000062697
aF0.10854999999996684
aF0.0
aF0.0
aF0.0
aF0.0
aa(lp337
F0.1650000000004449
aF0.8349999999995551
aF0.0
aF0.04895000000013994
aF0.24771666666657555
aF0.0
aF0.0
aF0.0
aF0.0
aa(lp338
F0.1650000000004449
aF0.8349999999995551
aF0.0
aF0.07645000000021263
aF0.3868833333331602
aF0.0
aF0.0
aF0.0
aF0.0
aa(lp339
F0.10395000000028524
aF0.5260499999997448
aF0.0
aF0.0
aF0.0
aF0.0
aF0.0
aF0.0
aF0.0
aa(lp340
F0.1314500000003578
aF0.6652166666663295
aF0.0
aF0.0
aF0.0
aF0.0
aF0.0
aF0.0
aF0.0
aa(lp341
F0.1589500000004304
aF0.804383333332914
aF0.0
aF0.0
aF0.0
aF0.0
aF0.0
aF0.0
aF0.0
aa(lp342
F0.1650000000004449
aF0.8349999999995552
aF0.0
aF0.021450000000058117
aF0.10854999999994352
aF0.0
aF0.0
aF0.0
aF0.0
aa(lp343
F0.1650000000004449
aF0.8349999999995551
aF0.0
aF0.048950000000130695
aF0.24771666666652814
aF0.0
aF0.0
aF0.0
aF0.0
aa(lp344
F0.1650000000004449
aF0.8349999999995551
aF0.0
aF0.07645000000020327
aF0.3868833333331127
aF0.0
aF0.0
aF0.0
aF0.0
aa(lp345
F0.10395000000027586
aF0.5260499999996975
aF0.0
aF0.0
aF0.0
aF0.0
aF0.0
aF0.0
aF0.0
aa(lp346
F0.13145000000034845
aF0.665216666666282
aF0.0
aF0.0
aF0.0
aF0.0
aF0.0
aF0.0
aF0.0
aa(lp347
F0.15895000000042103
aF0.8043833333328665
aF0.0
aF0.0
aF0.0
aF0.0
aF0.0
aF0.0
aF0.0
aa(lp348
F0.14355000000039617
aF0.726449999999659
aF0.0
aF0.021450000000048736
aF0.10854999999989601
aF0.0
aF0.0
aF0.0
aF0.0
aa(lp349
F0.11605000000032359
aF0.5872833333330745
aF0.0
aF0.04895000000012131
aF0.24771666666648062
aF0.0
aF0.0
aF0.0
aF0.0
aa(lp350
F0.088550000000251
aF0.4481166666664898
aF0.0
aF0.0764500000001939
aF0.3868833333330653
aF0.0
aF0.0
aF0.0
aF0.0
aa(lp351
F0.0
aF0.0
aF0.0
aF0.0
aF0.0
aF0.0
aF0.0
aF0.0
aF0.0
aa(lp352
F0.0
aF0.0
aF0.0
aF0.0
aF0.0
aF0.0
aF0.0
aF0.0
aF0.0
aa(lp353
F0.0
aF0.0
aF0.0
aF0.0
aF0.0
aF0.0
aF0.0
aF0.0
aF0.0
aa(lp354
F0.0
aF0.0
aF0.0
aF0.0
aF0.0
aF0.0
aF0.0
aF0.0
aF0.0
aa(lp355
F0.0
aF0.0
aF0.0
aF0.0
aF0.0
aF0.0
aF0.0
aF0.0
aF0.0
aa(lp356
F0.0
aF0.0
aF0.0
aF0.0
aF1.0
aF1.0
aF0.0
aF0.0
aF0.0
aa(lp357
F0.0
aF0.0
aF0.0
aF0.0
aF0.0
aF1.0
aF0.0
aF0.0
aF0.0
aa(lp358
F0.0
aF0.0
aF0.0
aF0.0
aF0.0
aF1.0
aF0.0
aF0.0
aF0.0
aa(lp359
F0.0
aF0.0
aF0.0
aF0.0
aF59.999833333333335
aF60.00983333333333
aF0.0
aF0.0
aF0.0
aa(lp360
F0.0
aF0.0
aF0.0
aF0.0
aF59.997055555555555
aF60.17372222222221
aF0.0
aF0.0
aF0.0
aa(lp361
F0.0
aF0.0
aF0.0
aF0.0
aF59.994277777777775
aF60.33761111111109
aF0.0
aF0.0
aF0.0
aa(lp362
F0.0
aF0.0
aF0.0
aF0.0
aF0.0
aF59.9915
aF0.0
aF0.0
aF0.0
aa(lp363
F0.0
aF0.0
aF0.0
aF0.0
aF0.0
aF59.98872222222222
aF0.0
aF0.0
aF0.0
aa(lp364
F0.0
aF0.0
aF0.0
aF0.0
aF0.0
aF59.98594444444444
aF0.0
aF0.0
aF0.0
aa(lp365
F0.0
aF0.0
aF0.0
aF0.0
aF59.999833333333335
aF60.009833333333276
aF0.0
aF0.0
aF0.0
aa(lp366
F0.0
aF0.0
aF0.0
aF0.0
aF59.997055555555555
aF60.17372222222215
aF0.0
aF0.0
aF0.0
aa(lp367
F0.0
aF0.0
aF0.0
aF0.0
aF59.99427777777778
aF60.33761111111104
aF0.0
aF0.0
aF0.0
aa(lp368
F0.0
aF0.0
aF0.0
aF0.0
aF0.0
aF59.9915
aF0.0
aF0.0
aF0.0
aa(lp369
F0.0
aF0.0
aF0.0
aF0.0
aF0.0
aF59.98872222222222
aF0.0
aF0.0
aF0.0
aa(lp370
F0.0
aF0.0
aF0.0
aF0.0
aF0.0
aF59.98594444444445
aF0.0
aF0.0
aF0.0
aa(lp371
F0.0
aF0.0
aF59.999833333333335
aF0.0
aF59.999833333333335
aF60.00983333333329
aF0.0
aF0.0
aF0.0
aa(lp372
F0.0
aF0.0
aF59.997055555555555
aF0.0
aF59.997055555555555
aF60.17372222222222
aF0.0
aF0.0
aF0.0
aa(lp373
F0.0
aF0.0
aF59.994277777777775
aF0.0
aF59.994277777777775
aF60.33761111111114
aF0.0
aF0.0
aF0.0
aa(lp374
F0.0
aF0.0
aF59.9915
aF0.0
aF0.0
aF59.9915
aF0.0
aF0.0
aF0.0
aa(lp375
F0.0
aF0.0
aF59.98872222222222
aF0.0
aF0.0
aF59.98872222222222
aF0.0
aF0.0
aF0.0
aa(lp376
F0.0
aF0.0
aF59.98594444444444
aF0.0
aF0.0
aF59.98594444444444
aF0.0
aF0.0
aF0.0
aa(lp377
F0.0
aF59.99983333333333
aF0.010000000000182278
aF0.0
aF59.99983333333333
aF0.010000000000182278
aF0.0
aF0.0
aF0.0
aa(lp378
F0.0
aF59.997055555555555
aF0.17666666666688685
aF0.0
aF59.997055555555555
aF0.17666666666688685
aF0.0
aF0.0
aF0.0
aa(lp379
F0.0
aF59.994277777777775
aF0.3433333333335914
aF0.0
aF59.994277777777775
aF0.3433333333335914
aF0.0
aF0.0
aF0.0
aa(lp380
F0.0
aF59.991499999999995
aF0.510000000000296
aF0.0
aF0.0
aF0.0
aF0.0
aF0.0
aF0.0
aa(lp381
F0.0
aF59.988722222222215
aF0.6766666666670005
aF0.0
aF0.0
aF0.0
aF0.0
aF0.0
aF0.0
aa(lp382
F0.0
aF59.985944444444435
aF0.8433333333337051
aF0.0
aF0.0
aF0.0
aF0.0
aF0.0
aF0.0
aa(lp383
F59.99983333333333
aF0.010000000000409652
aF0.0
aF0.0
aF0.0
aF0.0
aF0.0
aF0.0
aF0.0
aa(lp384
F0.11833333333376762
aF0.8816666666662323
aF0.0
aF0.006902777777804681
aF0.05143055555554188
aF0.0
aF0.0
aF0.0
aF0.0
aa(lp385
F0.11833333333376762
aF0.8816666666662324
aF0.0
aF0.026625000000103816
aF0.19837499999994734
aF0.0
aF0.0
aF0.0
aF0.0
aa(lp386
F0.11833333333376761
aF0.8816666666662323
aF0.0
aF0.04634722222239751
aF0.34531944444431273
aF0.0
aF0.0
aF0.0
aF0.0
aa(lp387
F0.06606944444469096
aF0.4922638888886765
aF0.0
aF0.0
aF0.0
aF0.0
aF0.0
aF0.0
aF0.0
aa(lp388
F0.08579166666698444
aF0.6392083333330401
aF0.0
aF0.0
aF0.0
aF0.0
aF0.0
aF0.0
aF0.0
aa(lp389
F0.10551388888927793
aF0.7861527777774039
aF0.0
aF0.0
aF0.0
aF0.0
aF0.0
aF0.0
aF0.0
aa(lp390
F0.11833333333376761
aF0.8816666666662324
aF0.0
aF0.0069027777778037785
aF0.05143055555553522
aF0.0
aF0.0
aF0.0
aF0.0
aa(lp391
F0.11833333333376761
aF0.8816666666662324
aF0.0
aF0.026625000000097265
aF0.19837499999989894
aF0.0
aF0.0
aF0.0
aF0.0
aa(lp392
F0.11833333333376761
aF0.8816666666662324
aF0.0
aF0.04634722222239075
aF0.34531944444426266
aF0.0
aF0.0
aF0.0
aF0.0
aa(lp393
F0.06606944444468421
aF0.4922638888886264
aF0.0
aF0.0
aF0.0
aF0.0
aF0.0
aF0.0
aF0.0
aa(lp394
F0.08579166666697771
aF0.63920833333299
aF0.0
aF0.0
aF0.0
aF0.0
aF0.0
aF0.0
aF0.0
aa(lp395
F0.1055138888892712
aF0.7861527777773537
aF0.0
aF0.0
aF0.0
aF0.0
aF0.0
aF0.0
aF0.0
aa(lp396
F0.11143055555597055
aF0.8302361111107472
aF0.0
aF0.006902777777797062
aF0.05143055555548515
aF0.0
aF0.0
aF0.0
aF0.0
aa(lp397
F0.09170833333367708
aF0.6832916666663835
aF0.0
aF0.026625000000090535
aF0.19837499999984876
aF0.0
aF0.0
aF0.0
aF0.0
aa(lp398
F0.07198611111138359
aF0.5363472222220198
aF0.0
aF0.04634722222238402
aF0.3453194444442125
aF0.0
aF0.0
aF0.0
aF0.0
aa(lp399
F0.0
aF0.0
aF0.0
aF0.0
aF0.0
aF0.0
aF0.0
aF0.0
aF0.0
aa(lp400
F0.0
aF0.0
aF0.0
aF0.0
aF0.0
aF0.0
aF0.0
aF0.0
aF0.0
aa(lp401
F0.0
aF0.0
aF0.0
aF0.0
aF0.0
aF0.0
aF0.0
aF0.0
aF0.0
aa(lp402
F0.0
aF0.0
aF0.0
aF0.0
aF0.0
aF0.0
aF0.0
aF0.0
aF0.0
aa(lp403
F0.0
aF0.0
aF0.0
aF0.0
aF0.0
aF0.0
aF0.0
aF0.0
aF0.0
aa(lp404
F0.0
aF0.0
aF0.0
aF0.0
aF0.0
aF0.0
aF0.0
aF0.0
aF0.0
aa(lp405
F0.0
aF0.0
aF0.0
aF0.0
aF1.0
aF1.0
aF0.0
aF0.0
aF0.0
aa(lp406
F0.0
aF0.0
aF0.0
aF0.0
aF0.0
aF1.0
aF0.0
aF0.0
aF0.0
aa(lp407
F0.0
aF0.0
aF0.0
aF0.0
aF0.0
aF1.0
aF0.0
aF0.0
aF0.0
aa(lp408
F0.0
aF0.0
aF0.0
aF0.0
aF59.997277777777775
aF60.1606111111111
aF0.0
aF0.0
aF0.0
aa(lp409
F0.0
aF0.0
aF0.0
aF0.0
aF59.9945
aF60.324499999999986
aF0.0
aF0.0
aF0.0
aa(lp410
F0.0
aF0.0
aF0.0
aF0.0
aF59.99172222222222
aF60.48838888888886
aF0.0
aF0.0
aF0.0
aa(lp411
F0.0
aF0.0
aF0.0
aF0.0
aF0.0
aF59.98894444444444
aF0.0
aF0.0
aF0.0
aa(lp412
F0.0
aF0.0
aF0.0
aF0.0
aF0.0
aF59.98616666666667
aF0.0
aF0.0
aF0.0
aa(lp413
F0.0
aF0.0
aF0.0
aF0.0
aF0.0
aF59.98338888888889
aF0.0
aF0.0
aF0.0
aa(lp414
F0.0
aF0.0
aF0.0
aF0.0
aF59.99727777777778
aF60.16061111111105
aF0.0
aF0.0
aF0.0
aa(lp415
F0.0
aF0.0
aF0.0
aF0.0
aF59.9945
aF60.32449999999993
aF0.0
aF0.0
aF0.0
aa(lp416
F0.0
aF0.0
aF0.0
aF0.0
aF59.99172222222222
aF60.48838888888881
aF0.0
aF0.0
aF0.0
aa(lp417
F0.0
aF0.0
aF0.0
aF0.0
aF0.0
aF59.98894444444445
aF0.0
aF0.0
aF0.0
aa(lp418
F0.0
aF0.0
aF0.0
aF0.0
aF0.0
aF59.98616666666667
aF0.0
aF0.0
aF0.0
aa(lp419
F0.0
aF0.0
aF0.0
aF0.0
aF0.0
aF59.98338888888889
aF0.0
aF0.0
aF0.0
aa(lp420
F0.0
aF0.0
aF59.997277777777775
aF0.0
aF59.997277777777775
aF60.160611111111095
aF0.0
aF0.0
aF0.0
aa(lp421
F0.0
aF0.0
aF59.9945
aF0.0
aF59.9945
aF60.32450000000003
aF0.0
aF0.0
aF0.0
aa(lp422
F0.0
aF0.0
aF59.99172222222222
aF0.0
aF59.99172222222222
aF60.488388888888956
aF0.0
aF0.0
aF0.0
aa(lp423
F0.0
aF0.0
aF59.98894444444444
aF0.0
aF0.0
aF59.98894444444444
aF0.0
aF0.0
aF0.0
aa(lp424
F0.0
aF0.0
aF59.98616666666666
aF0.0
aF0.0
aF59.98616666666666
aF0.0
aF0.0
aF0.0
aa(lp425
F0.0
aF0.0
aF59.98338888888889
aF0.0
aF0.0
aF59.98338888888889
aF0.0
aF0.0
aF0.0
aa(lp426
F0.0
aF59.997277777777775
aF0.16333333333355046
aF0.0
aF59.997277777777775
aF0.16333333333355046
aF0.0
aF0.0
aF0.0
aa(lp427
F0.0
aF59.994499999999995
aF0.33000000000025503
aF0.0
aF59.994499999999995
aF0.33000000000025503
aF0.0
aF0.0
aF0.0
aa(lp428
F0.0
aF59.991722222222215
aF0.4966666666669596
aF0.0
aF59.991722222222215
aF0.4966666666669596
aF0.0
aF0.0
aF0.0
aa(lp429
F0.0
aF59.98894444444444
aF0.6633333333336642
aF0.0
aF0.0
aF0.0
aF0.0
aF0.0
aF0.0
aa(lp430
F0.0
aF59.98616666666666
aF0.8300000000003688
aF0.0
aF0.0
aF0.0
aF0.0
aF0.0
aF0.0
aa(lp431
F0.0
aF0.9166666666670551
aF0.0833333333329449
aF0.0
aF0.0733333333333811
aF0.006666666666637108
aF0.0
aF0.0
aF0.0
aa(lp432
F0.0
aF0.9166666666670551
aF0.0833333333329449
aF0.0
aF0.22611111111125437
aF0.020555555555464067
aF0.0
aF0.0
aF0.0
aa(lp433
F0.0
aF0.9166666666670551
aF0.0833333333329449
aF0.0
aF0.37888888888908834
aF0.03444444444428743
aF0.0
aF0.0
aF0.0
aa(lp434
F0.0
aF0.5316666666669221
aF0.04833333333311078
aF0.0
aF0.0
aF0.0
aF0.0
aF0.0
aF0.0
aa(lp435
F0.0
aF0.6844444444447559
aF0.062222222221934145
aF0.0
aF0.0
aF0.0
aF0.0
aF0.0
aF0.0
aa(lp436
F0.0
aF0.8372222222225898
aF0.0761111111107575
aF0.0
aF0.0
aF0.0
aF0.0
aF0.0
aF0.0
aa(lp437
F0.0
aF0.9166666666670551
aF0.0833333333329449
aF0.0
aF0.07333333333336844
aF0.006666666666635956
aF0.0
aF0.0
aF0.0
aa(lp438
F0.0
aF0.9166666666670551
aF0.0833333333329449
aF0.0
aF0.2261111111112023
aF0.02055555555545932
aF0.0
aF0.0
aF0.0
aa(lp439
F0.0
aF0.9166666666670551
aF0.0833333333329449
aF0.0
aF0.37888888888903616
aF0.034444444444282685
aF0.0
aF0.0
aF0.0
aa(lp440
F0.0
aF0.5316666666668699
aF0.04833333333310605
aF0.0
aF0.0
aF0.0
aF0.0
aF0.0
aF0.0
aa(lp441
F0.0
aF0.6844444444447038
aF0.062222222221929406
aF0.0
aF0.0
aF0.0
aF0.0
aF0.0
aF0.0
aa(lp442
F0.0
aF0.8372222222225376
aF0.07611111111075278
aF0.0
aF0.0
aF0.0
aF0.0
aF0.0
aF0.0
aa(lp443
F0.0
aF0.8433333333337387
aF0.07666666666631367
aF0.0
aF0.07333333333331638
aF0.006666666666631224
aF0.0
aF0.0
aF0.0
aa(lp444
F0.0
aF0.6905555555559049
aF0.06277777777749032
aF0.0
aF0.22611111111115023
aF0.020555555555454588
aF0.0
aF0.0
aF0.0
aa(lp445
F0.0
aF0.537777777778071
aF0.04888888888866696
aF0.0
aF0.3788888888889841
aF0.034444444444277945
aF0.0
aF0.0
aF0.0
aa(lp446
F0.0
aF0.0
aF0.0
aF0.0
aF0.0
aF0.0
aF0.0
aF0.0
aF0.0
aa(lp447
F0.0
aF0.0
aF0.0
aF0.0
aF0.0
aF0.0
aF0.0
aF0.0
aF0.0
aa(lp448
F0.0
aF0.0
aF0.0
aF0.0
aF0.0
aF0.0
aF0.0
aF0.0
aF0.0
aa(lp449
F0.0
aF0.0
aF0.0
aF0.0
aF0.0
aF0.0
aF0.0
aF0.0
aF0.0
aa(lp450
F0.0
aF0.0
aF0.0
aF0.0
aF0.0
aF0.0
aF0.0
aF0.0
aF0.0
aa(lp451
F0.0
aF0.0
aF0.0
aF0.0
aF0.0
aF0.0
aF0.0
aF0.0
aF0.0
aa(lp452
F0.0
aF0.0
aF0.0
aF0.0
aF1.0
aF1.0
aF0.0
aF0.0
aF0.0
aa(lp453
F0.0
aF0.0
aF0.0
aF0.0
aF0.0
aF1.0
aF0.0
aF0.0
aF0.0
aa(lp454
F0.0
aF0.0
aF0.0
aF0.0
aF0.0
aF1.0
aF0.0
aF0.0
aF0.0
aa(lp455
F0.0
aF0.0
aF0.0
aF0.0
aF59.99791666666667
aF60.12291666666666
aF0.0
aF0.0
aF0.0
aa(lp456
F0.0
aF0.0
aF0.0
aF0.0
aF59.99513888888889
aF60.28680555555554
aF0.0
aF0.0
aF0.0
aa(lp457
F0.0
aF0.0
aF0.0
aF0.0
aF59.99236111111111
aF60.450694444444416
aF0.0
aF0.0
aF0.0
aa(lp458
F0.0
aF0.0
aF0.0
aF0.0
aF0.0
aF59.989583333333336
aF0.0
aF0.0
aF0.0
aa(lp459
F0.0
aF0.0
aF0.0
aF0.0
aF0.0
aF59.986805555555556
aF0.0
aF0.0
aF0.0
aa(lp460
F0.0
aF0.0
aF0.0
aF0.0
aF0.0
aF59.984027777777776
aF0.0
aF0.0
aF0.0
aa(lp461
F0.0
aF0.0
aF0.0
aF0.0
aF59.99791666666667
aF60.122916666666605
aF0.0
aF0.0
aF0.0
aa(lp462
F0.0
aF0.0
aF0.0
aF0.0
aF59.99513888888889
aF60.28680555555548
aF0.0
aF0.0
aF0.0
aa(lp463
F0.0
aF0.0
aF0.0
aF0.0
aF59.992361111111116
aF60.450694444444366
aF0.0
aF0.0
aF0.0
aa(lp464
F0.0
aF0.0
aF0.0
aF0.0
aF0.0
aF59.989583333333336
aF0.0
aF0.0
aF0.0
aa(lp465
F0.0
aF0.0
aF0.0
aF0.0
aF0.0
aF59.986805555555556
aF0.0
aF0.0
aF0.0
aa(lp466
F0.0
aF0.0
aF0.0
aF0.0
aF0.0
aF59.984027777777776
aF0.0
aF0.0
aF0.0
aa(lp467
F0.0
aF0.0
aF59.99791666666667
aF0.0
aF59.99791666666667
aF60.12291666666665
aF0.0
aF0.0
aF0.0
aa(lp468
F0.0
aF0.0
aF59.99513888888889
aF0.0
aF59.99513888888889
aF60.286805555555574
aF0.0
aF0.0
aF0.0
aa(lp469
F0.0
aF0.0
aF59.99236111111111
aF0.0
aF59.99236111111111
aF60.4506944444445
aF0.0
aF0.0
aF0.0
aa(lp470
F0.0
aF0.0
aF59.98958333333333
aF0.0
aF0.0
aF59.98958333333333
aF0.0
aF0.0
aF0.0
aa(lp471
F0.0
aF0.0
aF59.986805555555556
aF0.0
aF0.0
aF59.986805555555556
aF0.0
aF0.0
aF0.0
aa(lp472
F0.0
aF0.0
aF59.984027777777776
aF0.0
aF0.0
aF59.984027777777776
aF0.0
aF0.0
aF0.0
aa(lp473
F0.0
aF59.99791666666666
aF0.12500000000020842
aF0.0
aF59.99791666666666
aF0.12500000000020842
aF0.0
aF0.0
aF0.0
aa(lp474
F0.0
aF59.99513888888888
aF0.291666666666913
aF0.0
aF59.99513888888888
aF0.291666666666913
aF0.0
aF0.0
aF0.0
aa(lp475
F0.0
aF59.99236111111111
aF0.45833333333361753
aF0.0
aF59.99236111111111
aF0.45833333333361753
aF0.0
aF0.0
aF0.0
aa(lp476
F0.0
aF59.98958333333333
aF0.6250000000003221
aF0.0
aF0.0
aF0.0
aF0.0
aF0.0
aF0.0
aa(lp477
F0.0
aF59.98680555555555
aF0.7916666666670267
aF0.0
aF0.0
aF0.0
aF0.0
aF0.0
aF0.0
aa(lp478
F0.0
aF0.8866666666670483
aF0.11333333333295172
aF0.0
aF0.06354444444448626
aF0.008122222222196718
aF0.0
aF0.0
aF0.0
aa(lp479
F0.0
aF0.8866666666670482
aF0.11333333333295173
aF0.0
aF0.21132222222235952
aF0.027011111111026095
aF0.0
aF0.0
aF0.0
aa(lp480
F0.0
aF0.8866666666670483
aF0.11333333333295172
aF0.0
aF0.3591000000001925
aF0.0458999999998503
aF0.0
aF0.0
aF0.0
aa(lp481
F0.0
aF0.5068777777780253
aF0.06478888888867451
aF0.0
aF0.0
aF0.0
aF0.0
aF0.0
aF0.0
aa(lp482
F0.0
aF0.6546555555558585
aF0.08367777777749873
aF0.0
aF0.0
aF0.0
aF0.0
aF0.0
aF0.0
aa(lp483
F0.0
aF0.8024333333336915
aF0.10256666666632294
aF0.0
aF0.0
aF0.0
aF0.0
aF0.0
aF0.0
aa(lp484
F0.0
aF0.8866666666670482
aF0.11333333333295172
aF0.0
aF0.06354444444447616
aF0.008122222222195427
aF0.0
aF0.0
aF0.0
aa(lp485
F0.0
aF0.8866666666670482
aF0.11333333333295173
aF0.0
aF0.21132222222230912
aF0.027011111111019642
aF0.0
aF0.0
aF0.0
aa(lp486
F0.0
aF0.8866666666670483
aF0.11333333333295173
aF0.0
aF0.3591000000001421
aF0.04589999999984386
aF0.0
aF0.0
aF0.0
aa(lp487
F0.0
aF0.5068777777779749
aF0.06478888888866807
aF0.0
aF0.0
aF0.0
aF0.0
aF0.0
aF0.0
aa(lp488
F0.0
aF0.6546555555558081
aF0.0836777777774923
aF0.0
aF0.0
aF0.0
aF0.0
aF0.0
aF0.0
aa(lp489
F0.0
aF0.8024333333336411
aF0.1025666666663165
aF0.0
aF0.0
aF0.0
aF0.0
aF0.0
aF0.0
aa(lp490
F0.0
aF0.8231222222226224
aF0.10521111111076274
aF0.0
aF0.06354444444442575
aF0.008122222222188988
aF0.0
aF0.0
aF0.0
aa(lp491
F0.0
aF0.6753444444447895
aF0.08632222222193853
aF0.0
aF0.21132222222225872
aF0.027011111111013203
aF0.0
aF0.0
aF0.0
aa(lp492
F0.0
aF0.5275666666669566
aF0.06743333333311431
aF0.0
aF0.3591000000000917
aF0.04589999999983742
aF0.0
aF0.0
aF0.0
aa(lp493
F0.0
aF0.0
aF0.0
aF0.0
aF0.0
aF0.0
aF0.0
aF0.0
aF0.0
aa(lp494
F0.0
aF0.0
aF0.0
aF0.0
aF0.0
aF0.0
aF0.0
aF0.0
aF0.0
aa(lp495
F0.0
aF0.0
aF0.0
aF0.0
aF0.0
aF0.0
aF0.0
aF0.0
aF0.0
aa(lp496
F0.0
aF0.0
aF0.0
aF0.0
aF0.0
aF0.0
aF0.0
aF0.0
aF0.0
aa(lp497
F0.0
aF0.0
aF0.0
aF0.0
aF0.0
aF0.0
aF0.0
aF0.0
aF0.0
aa(lp498
F0.0
aF0.0
aF0.0
aF0.0
aF1.0
aF1.0
aF0.0
aF0.0
aF0.0
aa(lp499
F0.0
aF0.0
aF0.0
aF0.0
aF0.0
aF1.0
aF0.0
aF0.0
aF0.0
aa(lp500
F0.0
aF0.0
aF0.0
aF0.0
aF59.999694444444444
aF60.018027777777775
aF0.0
aF0.0
aF0.0
aa(lp501
F0.0
aF0.0
aF0.0
aF0.0
aF59.996916666666664
aF60.18191666666665
aF0.0
aF0.0
aF0.0
aa(lp502
F0.0
aF0.0
aF0.0
aF0.0
aF59.99413888888889
aF60.345805555555536
aF0.0
aF0.0
aF0.0
aa(lp503
F0.0
aF0.0
aF0.0
aF0.0
aF0.0
aF59.99136111111111
aF0.0
aF0.0
aF0.0
aa(lp504
F0.0
aF0.0
aF0.0
aF0.0
aF0.0
aF59.98858333333333
aF0.0
aF0.0
aF0.0
aa(lp505
F0.0
aF0.0
aF0.0
aF0.0
aF0.0
aF59.98580555555556
aF0.0
aF0.0
aF0.0
aa(lp506
F0.0
aF0.0
aF0.0
aF0.0
aF59.999694444444444
aF60.01802777777772
aF0.0
aF0.0
aF0.0
aa(lp507
F0.0
aF0.0
aF0.0
aF0.0
aF59.99691666666667
aF60.1819166666666
aF0.0
aF0.0
aF0.0
aa(lp508
F0.0
aF0.0
aF0.0
aF0.0
aF59.99413888888889
aF60.34580555555548
aF0.0
aF0.0
aF0.0
aa(lp509
F0.0
aF0.0
aF0.0
aF0.0
aF0.0
aF59.99136111111111
aF0.0
aF0.0
aF0.0
aa(lp510
F0.0
aF0.0
aF0.0
aF0.0
aF0.0
aF59.98858333333334
aF0.0
aF0.0
aF0.0
aa(lp511
F0.0
aF0.0
aF0.0
aF0.0
aF0.0
aF59.98580555555556
aF0.0
aF0.0
aF0.0
aa(lp512
F0.0
aF0.0
aF59.999694444444444
aF0.0
aF59.999694444444444
aF60.01802777777773
aF0.0
aF0.0
aF0.0
aa(lp513
F0.0
aF0.0
aF0.1816666666666606
aF0.0
aF0.1810611111111049
aF0.9972722222222214
aF0.0
aF0.0006055555555556729
aF0.003333333333334091
aa(lp514
F0.0
aF0.0
aF0.1816666666666606
aF0.0
aF0.15078333333332128
aF0.8608833333333007
aF0.0
aF0.030883333333339313
aF0.17000000000003865
aa(lp515
F0.0
aF0.0
aF0.3383333333333629
aF0.0
aF0.27743333333334375
aF0.8808999999999783
aF0.0
aF0.060900000000019175
aF0.18000000000004093
aa(lp516
F0.0
aF0.0
aF0.5050000000000675
aF0.0
aF0.0
aF0.5050000000000674
aF0.0
aF0.0
aF0.09090000000003282
aa(lp517
F0.0
aF0.0
aF0.671666666666772
aF0.0
aF0.0
aF0.6716666666667721
aF0.0
aF0.0
aF0.12090000000004647
aa(lp518
F0.0
aF0.0
aF0.7533333333334573
aF0.0
aF0.0
aF0.7533333333334573
aF0.0
aF0.0
aF0.0715666666666947
aa(lp519
F0.0
aF0.0
aF0.7916666666667993
aF0.0
aF0.0
aF0.7652777777778998
aF0.0
aF0.0
aF0.0
aa(lp520
F0.0
aF0.0
aF0.9583333333335038
aF0.0
aF0.0
aF0.9263888888890464
aF0.0
aF0.0
aF0.0
aa(lp521
F0.0
aF0.058333333333526596
aF0.9416666666664735
aF0.0
aF0.05250000000017263
aF0.8474999999998047
aF0.0
aF0.0
aF0.0
aa(lp522
F0.0
aF0.17500000000021984
aF0.8249999999997801
aF0.0
aF0.1487500000001809
aF0.701249999999785
aF0.0
aF0.0
aF0.0
aa(lp523
F0.0
aF0.34166666666692436
aF0.6583333333330756
aF0.0
aF0.29041666666687405
aF0.5595833333330918
aF0.0
aF0.0
aF0.0
aa(lp524
F0.0
aF0.4320833333335672
aF0.4179166666663987
aF0.0
aF0.0
aF0.0
aF0.0
aF0.0
aF0.0
aa(lp525
F0.0
aF0.3902944444446278
aF0.32803888888864163
aF0.0
aF0.0
aF0.0
aF0.0
aF0.0
aF0.0
aa(lp526
F0.0
aF0.5100166666668665
aF0.2083166666664028
aF0.0
aF0.0
aF0.0
aF0.0
aF0.0
aF0.0
aa(lp527
F0.0
aF0.6297388888891053
aF0.08859444444416406
aF0.0
aF0.0
aF0.0
aF0.0
aF0.0
aF0.0
aa(lp528
F0.0
aF0.7690611111113854
aF0.029272222221901973
aF0.0
aF0.0
aF0.0
aF0.0
aF0.0
aF0.0
aa(lp529
F0.0
aF0.9296166666670441
aF0.035383333332947964
aF0.0
aF0.0
aF0.0
aF0.0
aF0.0
aF0.0
aa(lp530
F0.0
aF0.9633333333337324
aF0.036666666666267625
aF0.0
aF0.12683888888897032
aF0.004827777777726333
aF0.0
aF0.0
aF0.0
aa(lp531
F0.0
aF0.9633333333337325
aF0.036666666666267625
aF0.0
aF0.2873944444446106
aF0.01093888888877163
aF0.0
aF0.0
aF0.0
aa(lp532
F0.0
aF0.9633333333337324
aF0.036666666666267625
aF0.0
aF0.44795000000022345
aF0.01704999999981589
aF0.0
aF0.0
aF0.0
aa(lp533
F0.0
aF0.6085055555558365
aF0.023161111110860146
aF0.0
aF0.0
aF0.0
aF0.0
aF0.0
aF0.0
aa(lp534
F0.0
aF0.7690611111114494
aF0.029272222221904405
aF0.0
aF0.0
aF0.0
aF0.0
aF0.0
aF0.0
aa(lp535
F0.0
aF0.9296166666670622
aF0.03538333333294866
aF0.0
aF0.0
aF0.0
aF0.0
aF0.0
aF0.0
aa(lp536
F0.0
aF0.9633333333337324
aF0.036666666666267625
aF0.0
aF0.1268388888889429
aF0.004827777777725292
aF0.0
aF0.0
aF0.0
aa(lp537
F0.0
aF0.9633333333337324
aF0.036666666666267625
aF0.0
aF0.28739444444455586
aF0.010938888888769548
aF0.0
aF0.0
aF0.0
aa(lp538
F0.0
aF0.9633333333337324
aF0.036666666666267625
aF0.0
aF0.4479500000001687
aF0.017049999999813804
aF0.0
aF0.0
aF0.0
aa(lp539
F0.0
aF0.6085055555557817
aF0.023161111110858064
aF0.0
aF0.0
aF0.0
aF0.0
aF0.0
aF0.0
aa(lp540
F0.0
aF0.7690611111113946
aF0.02927222222190232
aF0.0
aF0.0
aF0.0
aF0.0
aF0.0
aF0.0
aa(lp541
F0.0
aF0.9296166666670076
aF0.035383333332946576
aF0.0
aF0.0
aF0.0
aF0.0
aF0.0
aF0.0
aa(lp542
F0.0
aF0.8364944444448442
aF0.03183888888854442
aF0.0
aF0.12683888888888817
aF0.004827777777723211
aF0.0
aF0.0
aF0.0
aa(lp543
F0.0
aF0.6759388888892314
aF0.025727777777500162
aF0.0
aF0.287394444444501
aF0.010938888888767463
aF0.0
aF0.0
aF0.0
aa(lp544
F0.0
aF0.5153833333336184
aF0.019616666666455906
aF0.0
aF0.447950000000114
aF0.01704999999981172
aF0.0
aF0.0
aF0.0
aa(lp545
F0.0
aF0.0
aF0.0
aF0.0
aF0.0
aF0.0
aF0.0
aF0.0
aF0.0
aa(lp546
F0.0
aF0.0
aF0.0
aF0.0
aF0.0
aF0.0
aF0.0
aF0.0
aF0.0
aa(lp547
F0.0
aF0.0
aF0.0
aF0.0
aF0.0
aF0.0
aF0.0
aF0.0
aF0.0
aa(lp548
F0.0
aF0.0
aF0.0
aF0.0
aF0.0
aF0.0
aF0.0
aF0.0
aF0.0
aa(lp549
F0.0
aF0.0
aF0.0
aF0.0
aF0.0
aF0.0
aF0.0
aF0.0
aF0.0
aa(lp550
F0.0
aF0.0
aF0.0
aF0.0
aF0.0
aF0.0
aF0.0
aF0.0
aF0.0
aa(lp551
F0.0
aF0.0
aF0.0
aF0.0
aF0.0
aF0.0
aF0.0
aF0.0
aF0.0
aa(lp552
F0.0
aF0.0
aF0.0
aF0.0
aF59.98888888888889
aF60.65555555555555
aF0.0
aF0.0
aF0.0
aa(lp553
F0.0
aF0.0
aF0.0
aF0.0
aF0.0
aF59.98888888888889
aF0.0
aF0.0
aF0.0
aa(lp554
F0.0
aF0.0
aF0.0
aF0.0
aF0.0
aF59.98888888888889
aF0.0
aF0.0
aF0.0
aa(lp555
F0.0
aF0.0
aF0.0
aF0.0
aF0.0
aF59.98888888888889
aF0.0
aF0.0
aF0.0
aa(lp556
F0.0
aF0.0
aF0.0
aF0.0
aF0.0
aF59.98888888888889
aF0.0
aF0.0
aF0.0
aa(lp557
F0.0
aF0.0
aF0.0
aF0.0
aF0.0
aF59.98738888888889
aF0.0
aF0.0
aF0.0
aa(lp558
F0.0
aF0.0
aF0.0
aF0.0
aF0.0
aF59.984611111111114
aF0.0
aF0.0
aF0.0
aa(lp559
F0.0
aF0.0
aF0.0
aF0.0
aF59.9985
aF60.088499999999975
aF0.0
aF0.0
aF0.0
aa(lp560
F0.0
aF0.0
aF0.0
aF0.0
aF59.99572222222222
aF60.25238888888885
aF0.0
aF0.0
aF0.0
aa(lp561
F0.0
aF0.0
aF0.0
aF0.0
aF59.99294444444445
aF60.416277777777736
aF0.0
aF0.0
aF0.0
aa(lp562
F0.0
aF0.0
aF0.0
aF0.0
aF0.0
aF59.99016666666667
aF0.0
aF0.0
aF0.0
aa(lp563
F0.0
aF0.0
aF0.0
aF0.0
aF0.0
aF59.98738888888889
aF0.0
aF0.0
aF0.0
aa(lp564
F0.0
aF0.0
aF0.0
aF0.0
aF0.0
aF59.984611111111114
aF0.0
aF0.0
aF0.0
aa(lp565
F0.0
aF0.0
aF0.0
aF0.0
aF59.9985
aF60.08849999999992
aF0.0
aF0.0
aF0.0
aa(lp566
F0.0
aF0.0
aF0.0
aF0.0
aF59.99572222222223
aF60.2523888888888
aF0.0
aF0.0
aF0.0
aa(lp567
F0.0
aF0.0
aF0.0
aF0.0
aF59.99294444444445
aF60.41627777777768
aF0.0
aF0.0
aF0.0
aa(lp568
F0.0
aF0.0
aF0.0
aF0.0
aF0.0
aF59.99016666666667
aF0.0
aF0.0
aF0.0
aa(lp569
F0.0
aF0.0
aF0.05413333333333649
aF0.0
aF0.0
aF0.6225333333332159
aF0.0
aF0.0
aF0.0
aa(lp570
F0.0
aF0.0
aF0.16691111111112084
aF0.0
aF0.0
aF0.5097555555554315
aF0.0
aF0.0
aF0.0
aa(lp571
F0.0
aF0.0
aF0.21000000000002206
aF0.0
aF0.0
aF0.6299999999998752
aF0.0
aF0.0
aF0.0
aa(lp572
F0.0
aF0.0016666666666508567
aF0.25500000000000783
aF0.0
aF0.004999999999951044
aF0.7499999999999432
aF0.0
aF0.0
aF0.0
aa(lp573
F0.0
aF0.04333333333333647
aF0.38000000000002676
aF0.0
aF0.12999999999996992
aF0.7499999999999432
aF0.0
aF0.0
aF0.0
aa(lp574
F0.0
aF0.08500000000002209
aF0.5050000000000457
aF0.0
aF0.2549999999999889
aF0.7499999999999432
aF0.0
aF0.0
aF0.0
aa(lp575
F0.0
aF0.0
aF0.5066666666667154
aF0.0
aF0.0
aF0.38000000000000783
aF0.0
aF0.0
aF0.0
aa(lp576
F0.0
aF0.0
aF0.67333333333342
aF0.0
aF0.0
aF0.5050000000000268
aF0.0
aF0.0
aF0.0
aa(lp577
F0.0
aF0.0
aF0.8400000000001246
aF0.0
aF0.0
aF0.6300000000000457
aF0.0
aF0.0
aF0.0
aa(lp578
F0.0
aF0.0066666666668292185
aF0.9933333333331708
aF0.0
aF0.005000000000121574
aF0.7449999999998216
aF0.0
aF0.0
aF0.0
aa(lp579
F0.0
aF0.17333333333353376
aF0.8266666666664663
aF0.0
aF0.13000000000014045
aF0.6199999999998027
aF0.0
aF0.0
aF0.0
aa(lp580
F0.0
aF0.34000000000023833
aF0.6599999999997617
aF0.0
aF0.25500000000015943
aF0.4949999999997837
aF0.0
aF0.0
aF0.0
aa(lp581
F0.0
aF0.3800000000001783
aF0.3699999999997648
aF0.0
aF0.0
aF0.0
aF0.0
aF0.0
aF0.0
aa(lp582
F0.0
aF0.5050000000001973
aF0.2449999999997458
aF0.0
aF0.0
aF0.0
aF0.0
aF0.0
aF0.0
aa(lp583
F0.0
aF0.6300000000002163
aF0.11999999999972687
aF0.0
aF0.0
aF0.0
aF0.0
aF0.0
aF0.0
aa(lp584
F0.005000000000292049
aF0.744999999999651
aF0.0
aF0.0
aF0.0
aF0.0
aF0.0
aF0.0
aF0.0
aa(lp585
F0.05711111111145467
aF0.7995555555551794
aF0.0
aF0.0
aF0.0
aF0.0
aF0.0
aF0.0
aF0.0
aa(lp586
F0.06666666666707026
aF0.9333333333329298
aF0.0
aF0.0015555555555653022
aF0.021777777777773344
aF0.0
aF0.0
aF0.0
aF0.0
aa(lp587
F0.06666666666707025
aF0.9333333333329297
aF0.0
aF0.012666666666746207
aF0.17733333333329693
aF0.0
aF0.0
aF0.0
aF0.0
aa(lp588
F0.06666666666707026
aF0.9333333333329297
aF0.0
aF0.02377777777792478
aF0.33288888888878754
aF0.0
aF0.0
aF0.0
aF0.0
aa(lp589
F0.0348888888891025
aF0.4884444444442669
aF0.0
aF0.0
aF0.0
aF0.0
aF0.0
aF0.0
aF0.0
aa(lp590
F0.04600000000028026
aF0.6439999999997463
aF0.0
aF0.0
aF0.0
aF0.0
aF0.0
aF0.0
aF0.0
aa(lp591
F0.057111111111458
aF0.7995555555552257
aF0.0
aF0.0
aF0.0
aF0.0
aF0.0
aF0.0
aF0.0
aa(lp592
F0.06666666666707025
aF0.9333333333329298
aF0.0
aF0.0015555555555654826
aF0.021777777777775564
aF0.0
aF0.0
aF0.0
aF0.0
aa(lp593
F0.06666666666707025
aF0.9333333333329298
aF0.0
aF0.012666666666743223
aF0.17733333333325496
aF0.0
aF0.0
aF0.0
aF0.0
aa(lp594
F0.06666666666707026
aF0.9333333333329297
aF0.0
aF0.023777777777920978
aF0.33288888888873436
aF0.0
aF0.0
aF0.0
aF0.0
aa(lp595
F0.03488888888909871
aF0.4884444444442138
aF0.0
aF0.0
aF0.0
aF0.0
aF0.0
aF0.0
aF0.0
aa(lp596
F0.04600000000027647
aF0.6439999999996934
aF0.0
aF0.0
aF0.0
aF0.0
aF0.0
aF0.0
aF0.0
aa(lp597
F0.05711111111145421
aF0.7995555555551727
aF0.0
aF0.0
aF0.0
aF0.0
aF0.0
aF0.0
aF0.0
aa(lp598
F0.06511111111150857
aF0.9115555555552073
aF0.0
aF0.001555555555561694
aF0.021777777777722496
aF0.0
aF0.0
aF0.0
aF0.0
aa(lp599
F0.05400000000033081
aF0.7559999999997279
aF0.0
aF0.012666666666739435
aF0.1773333333332019
aF0.0
aF0.0
aF0.0
aF0.0
aa(lp600
F0.04288888888915307
aF0.6004444444442484
aF0.0
aF0.02377777777791719
aF0.3328888888886814
aF0.0
aF0.0
aF0.0
aF0.0
aa(lp601
F0.0
aF0.0
aF0.0
aF0.0
aF0.0
aF0.0
aF0.0
aF0.0
aF0.0
aa(lp602
F0.0
aF0.0
aF0.0
aF0.0
aF0.0
aF0.0
aF0.0
aF0.0
aF0.0
aa(lp603
F0.0
aF0.0
aF0.0
aF0.0
aF0.0
aF0.0
aF0.0
aF0.0
aF0.0
aa(lp604
F0.0
aF0.0
aF0.0
aF0.0
aF0.0
aF0.0
aF0.0
aF0.0
aF0.0
aa(lp605
F0.0
aF0.0
aF0.0
aF0.0
aF0.0
aF0.0
aF0.0
aF0.0
aF0.0
aa(lp606
F0.0
aF0.0
aF0.0
aF0.0
aF0.0
aF0.0
aF0.0
aF0.0
aF0.0
aa(lp607
F0.0
aF0.0
aF0.0
aF0.0
aF0.0
aF0.0
aF0.0
aF0.0
aF0.0
aa(lp608
F0.0
aF0.0
aF0.0
aF0.0
aF0.0
aF0.0
aF0.0
aF0.0
aF0.0
aa(lp609
F0.0
aF0.0
aF0.0
aF0.0
aF0.0
aF0.0
aF0.0
aF0.0
aF0.0
aa(lp610
F0.0
aF0.0
aF0.0
aF0.0
aF0.0
aF0.0
aF0.0
aF0.0
aF0.0
aa(lp611
F0.0
aF0.0
aF0.0
aF0.0
aF0.0
aF0.0
aF0.0
aF0.0
aF0.0
aasS'hiddenLayer'
p612
(lp613
g12
ag27
ag40
ag57
ag78
ag103
ag132
asS'inputLayer'
p614
(lp615
g17
ag32
ag47
ag66
ag89
ag116
ag147
ag166
ag184
asS'learningRate'
p616
F0.2
sS'allConnections'
p617
(lp618
g15
ag22
ag43
ag60
ag81
ag106
ag135
ag36
ag30
ag38
ag62
ag83
ag108
ag137
ag51
ag53
ag45
ag55
ag85
ag110
ag139
ag70
ag72
ag74
ag64
ag76
ag112
ag141
ag93
ag95
ag97
ag99
ag87
ag101
ag143
ag120
ag122
ag124
ag126
ag128
ag114
ag130
ag151
ag153
ag155
ag157
ag159
ag161
ag145
ag170
ag172
ag174
ag176
ag178
ag180
ag164
ag188
ag190
ag192
ag194
ag196
ag198
ag182
ag9
ag226
ag251
ag271
ag300
ag228
ag253
ag273
ag297
ag230
ag255
ag275
ag294
ag232
ag257
ag277
ag291
ag234
ag259
ag279
ag288
ag236
ag261
ag281
ag219
ag221
ag263
ag283
ag244
ag238
ag246
ag266
ag206
ag208
ag210
ag212
ag214
ag216
ag200
asS'tolerance'
p619
F0.1
sS'targets'
p620
(lp621
(lp622
I0
aI0
aI0
aI0
aa(lp623
I0
aI0
aI0
aI0
aa(lp624
I0
aI0
aI0
aI0
aa(lp625
I0
aI0
aI0
aI1
aa(lp626
I0
aI0
aI0
aI1
aa(lp627
I0
aI0
aI0
aI1
aa(lp628
I0
aI0
aI0
aI1
aa(lp629
I0
aI0
aI0
aI1
aa(lp630
I0
aI0
aI0
aI1
aa(lp631
I0
aI0
aI0
aI1
aa(lp632
I0
aI0
aI0
aI1
aa(lp633
I0
aI0
aI0
aI1
aa(lp634
I0
aI0
aI0
aI1
aa(lp635
I0
aI0
aI0
aI1
aa(lp636
I0
aI0
aI0
aI1
aa(lp637
I0
aI0
aI0
aI1
aa(lp638
I0
aI0
aI0
aI1
aa(lp639
I0
aI0
aI0
aI1
aa(lp640
I0
aI0
aI0
aI1
aa(lp641
I0
aI0
aI0
aI1
aa(lp642
I0
aI0
aI0
aI1
aa(lp643
I0
aI0
aI0
aI1
aa(lp644
I0
aI0
aI0
aI1
aa(lp645
I0
aI0
aI0
aI1
aa(lp646
I0
aI0
aI0
aI1
aa(lp647
I0
aI0
aI0
aI1
aa(lp648
I0
aI0
aI0
aI1
aa(lp649
I0
aI0
aI0
aI1
aa(lp650
I0
aI0
aI0
aI0
aa(lp651
I0
aI0
aI0
aI0
aa(lp652
I1
aI0
aI0
aI0
aa(lp653
I1
aI0
aI0
aI0
aa(lp654
I1
aI0
aI0
aI0
aa(lp655
I1
aI0
aI0
aI0
aa(lp656
I1
aI0
aI0
aI0
aa(lp657
I1
aI0
aI0
aI0
aa(lp658
I1
aI0
aI0
aI0
aa(lp659
I1
aI0
aI0
aI0
aa(lp660
I1
aI0
aI0
aI0
aa(lp661
I1
aI0
aI0
aI0
aa(lp662
I1
aI0
aI0
aI0
aa(lp663
I1
aI0
aI0
aI0
aa(lp664
I1
aI0
aI0
aI0
aa(lp665
I1
aI0
aI0
aI0
aa(lp666
I1
aI0
aI0
aI0
aa(lp667
I1
aI0
aI0
aI0
aa(lp668
I1
aI0
aI0
aI0
aa(lp669
I1
aI0
aI0
aI0
aa(lp670
I1
aI0
aI0
aI0
aa(lp671
I0
aI0
aI0
aI0
aa(lp672
I0
aI0
aI0
aI0
aa(lp673
I0
aI0
aI0
aI0
aa(lp674
I0
aI0
aI0
aI0
aa(lp675
I0
aI0
aI0
aI1
aa(lp676
I0
aI0
aI0
aI1
aa(lp677
I0
aI0
aI0
aI1
aa(lp678
I0
aI0
aI0
aI1
aa(lp679
I0
aI0
aI0
aI1
aa(lp680
I0
aI0
aI0
aI1
aa(lp681
I0
aI0
aI0
aI1
aa(lp682
I0
aI0
aI0
aI1
aa(lp683
I0
aI0
aI0
aI1
aa(lp684
I0
aI0
aI0
aI1
aa(lp685
I0
aI0
aI0
aI1
aa(lp686
I0
aI0
aI0
aI1
aa(lp687
I0
aI0
aI0
aI1
aa(lp688
I0
aI0
aI0
aI1
aa(lp689
I0
aI0
aI0
aI1
aa(lp690
I0
aI0
aI0
aI1
aa(lp691
I0
aI0
aI0
aI1
aa(lp692
I0
aI0
aI0
aI1
aa(lp693
I0
aI0
aI0
aI1
aa(lp694
I0
aI0
aI0
aI1
aa(lp695
I0
aI0
aI0
aI1
aa(lp696
I0
aI0
aI0
aI1
aa(lp697
I0
aI0
aI0
aI1
aa(lp698
I0
aI0
aI0
aI1
aa(lp699
I0
aI0
aI0
aI1
aa(lp700
I1
aI0
aI0
aI0
aa(lp701
I1
aI0
aI0
aI0
aa(lp702
I1
aI0
aI0
aI0
aa(lp703
I1
aI0
aI0
aI0
aa(lp704
I1
aI0
aI0
aI0
aa(lp705
I1
aI0
aI0
aI0
aa(lp706
I1
aI0
aI0
aI0
aa(lp707
I1
aI0
aI0
aI0
aa(lp708
I1
aI0
aI0
aI0
aa(lp709
I1
aI0
aI0
aI0
aa(lp710
I1
aI0
aI0
aI0
aa(lp711
I1
aI0
aI0
aI0
aa(lp712
I1
aI0
aI0
aI0
aa(lp713
I1
aI0
aI0
aI0
aa(lp714
I1
aI0
aI0
aI0
aa(lp715
I1
aI0
aI0
aI0
aa(lp716
I1
aI0
aI0
aI0
aa(lp717
I1
aI0
aI0
aI0
aa(lp718
I1
aI0
aI0
aI0
aa(lp719
I0
aI0
aI0
aI0
aa(lp720
I0
aI0
aI0
aI0
aa(lp721
I0
aI0
aI0
aI0
aa(lp722
I0
aI0
aI0
aI0
aa(lp723
I0
aI0
aI0
aI0
aa(lp724
I0
aI0
aI0
aI1
aa(lp725
I0
aI0
aI0
aI1
aa(lp726
I0
aI0
aI0
aI1
aa(lp727
I0
aI0
aI0
aI1
aa(lp728
I0
aI0
aI0
aI1
aa(lp729
I0
aI0
aI0
aI1
aa(lp730
I0
aI0
aI0
aI1
aa(lp731
I0
aI0
aI0
aI1
aa(lp732
I0
aI0
aI0
aI1
aa(lp733
I0
aI0
aI0
aI1
aa(lp734
I0
aI0
aI0
aI1
aa(lp735
I0
aI0
aI0
aI1
aa(lp736
I0
aI0
aI0
aI1
aa(lp737
I0
aI0
aI0
aI1
aa(lp738
I0
aI0
aI0
aI1
aa(lp739
I0
aI0
aI0
aI1
aa(lp740
I0
aI0
aI0
aI1
aa(lp741
I0
aI0
aI0
aI1
aa(lp742
I0
aI0
aI0
aI1
aa(lp743
I0
aI0
aI0
aI1
aa(lp744
I0
aI0
aI0
aI1
aa(lp745
I0
aI0
aI0
aI1
aa(lp746
I0
aI0
aI0
aI1
aa(lp747
I1
aI0
aI0
aI0
aa(lp748
I1
aI0
aI0
aI0
aa(lp749
I1
aI0
aI0
aI0
aa(lp750
I1
aI0
aI0
aI0
aa(lp751
I1
aI0
aI0
aI0
aa(lp752
I1
aI0
aI0
aI0
aa(lp753
I1
aI0
aI0
aI0
aa(lp754
I1
aI0
aI0
aI0
aa(lp755
I1
aI0
aI0
aI0
aa(lp756
I1
aI0
aI0
aI0
aa(lp757
I1
aI0
aI0
aI0
aa(lp758
I1
aI0
aI0
aI0
aa(lp759
I1
aI0
aI0
aI0
aa(lp760
I1
aI0
aI0
aI0
aa(lp761
I1
aI0
aI0
aI0
aa(lp762
I1
aI0
aI0
aI0
aa(lp763
I1
aI0
aI0
aI0
aa(lp764
I1
aI0
aI0
aI0
aa(lp765
I1
aI0
aI0
aI0
aa(lp766
I0
aI0
aI0
aI0
aa(lp767
I0
aI0
aI0
aI0
aa(lp768
I0
aI0
aI0
aI0
aa(lp769
I0
aI0
aI0
aI0
aa(lp770
I0
aI0
aI0
aI0
aa(lp771
I0
aI0
aI0
aI1
aa(lp772
I0
aI0
aI0
aI1
aa(lp773
I0
aI0
aI0
aI1
aa(lp774
I0
aI0
aI0
aI1
aa(lp775
I0
aI0
aI0
aI1
aa(lp776
I0
aI0
aI0
aI1
aa(lp777
I0
aI0
aI0
aI1
aa(lp778
I0
aI0
aI0
aI1
aa(lp779
I0
aI0
aI0
aI1
aa(lp780
I0
aI0
aI0
aI1
aa(lp781
I0
aI0
aI0
aI1
aa(lp782
I0
aI0
aI0
aI1
aa(lp783
I0
aI0
aI0
aI1
aa(lp784
I0
aI0
aI0
aI1
aa(lp785
I0
aI0
aI0
aI1
aa(lp786
I0
aI0
aI0
aI1
aa(lp787
I0
aI0
aI0
aI1
aa(lp788
I0
aI0
aI0
aI1
aa(lp789
I0
aI0
aI0
aI1
aa(lp790
I0
aI0
aI0
aI1
aa(lp791
I0
aI0
aI0
aI1
aa(lp792
I0
aI0
aI0
aI1
aa(lp793
I0
aI0
aI0
aI1
aa(lp794
I1
aI0
aI0
aI0
aa(lp795
I1
aI0
aI0
aI0
aa(lp796
I1
aI0
aI0
aI0
aa(lp797
I1
aI0
aI0
aI0
aa(lp798
I1
aI0
aI0
aI0
aa(lp799
I1
aI0
aI0
aI0
aa(lp800
I1
aI0
aI0
aI0
aa(lp801
I1
aI0
aI0
aI0
aa(lp802
I1
aI0
aI0
aI0
aa(lp803
I1
aI0
aI0
aI0
aa(lp804
I1
aI0
aI0
aI0
aa(lp805
I1
aI0
aI0
aI0
aa(lp806
I1
aI0
aI0
aI0
aa(lp807
I1
aI0
aI0
aI0
aa(lp808
I1
aI0
aI0
aI0
aa(lp809
I1
aI0
aI0
aI0
aa(lp810
I1
aI0
aI0
aI0
aa(lp811
I1
aI0
aI0
aI0
aa(lp812
I1
aI0
aI0
aI0
aa(lp813
I0
aI0
aI0
aI0
aa(lp814
I0
aI0
aI0
aI0
aa(lp815
I0
aI0
aI0
aI0
aa(lp816
I0
aI0
aI0
aI1
aa(lp817
I0
aI0
aI0
aI1
aa(lp818
I0
aI0
aI0
aI1
aa(lp819
I0
aI0
aI0
aI1
aa(lp820
I0
aI0
aI0
aI1
aa(lp821
I0
aI0
aI0
aI1
aa(lp822
I0
aI0
aI0
aI1
aa(lp823
I0
aI0
aI0
aI1
aa(lp824
I0
aI0
aI0
aI1
aa(lp825
I0
aI0
aI0
aI1
aa(lp826
I0
aI0
aI0
aI1
aa(lp827
I0
aI0
aI0
aI1
aa(lp828
I0
aI0
aI0
aI1
aa(lp829
I1
aI0
aI0
aI0
aa(lp830
I1
aI0
aI0
aI0
aa(lp831
I0
aI0
aI0
aI1
aa(lp832
I0
aI0
aI0
aI1
aa(lp833
I0
aI0
aI0
aI1
aa(lp834
I0
aI1
aI0
aI0
aa(lp835
I0
aI0
aI0
aI1
aa(lp836
I0
aI0
aI0
aI1
aa(lp837
I0
aI1
aI0
aI0
aa(lp838
I0
aI0
aI0
aI1
aa(lp839
I0
aI0
aI0
aI1
aa(lp840
I0
aI0
aI0
aI1
aa(lp841
I0
aI0
aI0
aI1
aa(lp842
I0
aI0
aI0
aI1
aa(lp843
I0
aI0
aI0
aI1
aa(lp844
I1
aI0
aI0
aI0
aa(lp845
I1
aI0
aI0
aI0
aa(lp846
I1
aI0
aI0
aI0
aa(lp847
I1
aI0
aI0
aI0
aa(lp848
I1
aI0
aI0
aI0
aa(lp849
I1
aI0
aI0
aI0
aa(lp850
I1
aI0
aI0
aI0
aa(lp851
I1
aI0
aI0
aI0
aa(lp852
I1
aI0
aI0
aI0
aa(lp853
I1
aI0
aI0
aI0
aa(lp854
I1
aI0
aI0
aI0
aa(lp855
I1
aI0
aI0
aI0
aa(lp856
I1
aI0
aI0
aI0
aa(lp857
I1
aI0
aI0
aI0
aa(lp858
I1
aI0
aI0
aI0
aa(lp859
I1
aI0
aI0
aI0
aa(lp860
I1
aI0
aI0
aI0
aa(lp861
I1
aI0
aI0
aI0
aa(lp862
I1
aI0
aI0
aI0
aa(lp863
I1
aI0
aI0
aI0
aa(lp864
I1
aI0
aI0
aI0
aa(lp865
I0
aI0
aI0
aI0
aa(lp866
I0
aI0
aI0
aI0
aa(lp867
I0
aI0
aI0
aI0
aa(lp868
I0
aI0
aI0
aI0
aa(lp869
I0
aI0
aI0
aI0
aa(lp870
I0
aI0
aI0
aI0
aa(lp871
I0
aI0
aI0
aI0
aa(lp872
I0
aI0
aI0
aI0
aa(lp873
I0
aI0
aI0
aI1
aa(lp874
I0
aI0
aI0
aI1
aa(lp875
I0
aI0
aI0
aI1
aa(lp876
I0
aI0
aI0
aI1
aa(lp877
I0
aI0
aI0
aI1
aa(lp878
I0
aI0
aI0
aI1
aa(lp879
I0
aI0
aI0
aI1
aa(lp880
I0
aI0
aI0
aI1
aa(lp881
I0
aI0
aI0
aI1
aa(lp882
I0
aI0
aI0
aI1
aa(lp883
I0
aI0
aI0
aI1
aa(lp884
I0
aI0
aI0
aI1
aa(lp885
I0
aI1
aI0
aI0
aa(lp886
I0
aI1
aI0
aI0
aa(lp887
I0
aI0
aI0
aI1
aa(lp888
I0
aI0
aI0
aI1
aa(lp889
I0
aI0
aI0
aI1
aa(lp890
I0
aI0
aI0
aI1
aa(lp891
I0
aI0
aI0
aI1
aa(lp892
I0
aI0
aI0
aI1
aa(lp893
I0
aI0
aI0
aI1
aa(lp894
I0
aI0
aI0
aI1
aa(lp895
I0
aI0
aI0
aI1
aa(lp896
I0
aI0
aI0
aI1
aa(lp897
I0
aI0
aI0
aI1
aa(lp898
I0
aI0
aI0
aI1
aa(lp899
I0
aI0
aI0
aI1
aa(lp900
I0
aI0
aI0
aI1
aa(lp901
I1
aI0
aI0
aI0
aa(lp902
I1
aI0
aI0
aI0
aa(lp903
I1
aI0
aI0
aI0
aa(lp904
I1
aI0
aI0
aI0
aa(lp905
I1
aI0
aI0
aI0
aa(lp906
I1
aI0
aI0
aI0
aa(lp907
I1
aI0
aI0
aI0
aa(lp908
I1
aI0
aI0
aI0
aa(lp909
I1
aI0
aI0
aI0
aa(lp910
I1
aI0
aI0
aI0
aa(lp911
I1
aI0
aI0
aI0
aa(lp912
I1
aI0
aI0
aI0
aa(lp913
I1
aI0
aI0
aI0
aa(lp914
I1
aI0
aI0
aI0
aa(lp915
I1
aI0
aI0
aI0
aa(lp916
I1
aI0
aI0
aI0
aa(lp917
I1
aI0
aI0
aI0
aa(lp918
I1
aI0
aI0
aI0
aa(lp919
I1
aI0
aI0
aI0
aa(lp920
I1
aI0
aI0
aI0
aa(lp921
I1
aI0
aI0
aI0
aa(lp922
I0
aI0
aI0
aI0
aa(lp923
I0
aI0
aI0
aI0
aa(lp924
I0
aI0
aI0
aI0
aa(lp925
I0
aI0
aI0
aI0
aa(lp926
I0
aI0
aI0
aI0
aa(lp927
I0
aI0
aI0
aI0
aasS'momentum'
p928
F0.0
sb.